target datalayout = "e-m:e-p270:32:32-p271:32:32-p272:64:64-i64:64-i128:128-f80:128-n8:16:32:64-S128"
target triple = "x86_64-pc-linux-gnu"

%struct.archive_read = type { %struct.archive, ptr, i32, i64, i64, %struct.archive_read_client, [16 x %struct.archive_read_filter_bidder], ptr, i32, i64, i32, i32, [16 x %struct.archive_format_descriptor], ptr, ptr, ptr, %struct.anon }
%struct.archive = type { i32, i32, ptr, i32, ptr, i32, i32, ptr, %struct.archive_string, ptr, i32, i32, ptr, ptr, i64, i64, i64, i8, i64 }
%struct.archive_string = type { ptr, i64, i64 }
%struct.archive_read_client = type { ptr, ptr, ptr, ptr, ptr, ptr, i32, i32, i64, ptr }
%struct.archive_read_filter_bidder = type { ptr, ptr, ptr }
%struct.archive_format_descriptor = type { ptr, ptr, ptr, ptr, ptr, ptr, ptr, ptr, ptr, ptr, ptr }
%struct.anon = type { ptr, ptr, i32, ptr, ptr }
%struct.rar5 = type { i32, i32, i32, i32, i64, i64, %struct.generic_header, %struct.main_header, %struct.comp_state, %struct.file_header, %struct.bit_reader, %struct.multivolume, %struct.compressed_block_header, i32, i32 }
%struct.generic_header = type { i8, i32, i32 }
%struct.main_header = type { i8, i32 }
%struct.comp_state = type { i8, i32, i32, i32, i64, ptr, ptr, ptr, i64, i64, i64, i64, i64, i64, i32, %struct.decode_table, %struct.decode_table, %struct.decode_table, %struct.decode_table, %struct.decode_table, %struct.cdeque, i64, i64, [4 x i32], [2 x %struct.data_ready] }
%struct.decode_table = type { i32, [16 x i32], [16 x i32], i32, [1024 x i8], [1024 x i16], [306 x i16] }
%struct.cdeque = type { i16, i16, i16, i16, ptr }
%struct.data_ready = type { i8, ptr, i64, i64 }
%struct.file_header = type { i64, i64, i64, i64, i8, i64, i64, i64, i32, i32, i32, [32 x i8], %struct.blake2sp_state__, i8, i64, i64, i64 }
%struct.blake2sp_state__ = type { [8 x [1 x %struct.blake2s_state__]], [1 x %struct.blake2s_state__], [512 x i8], i64, i64 }
%struct.blake2s_state__ = type { [8 x i32], [2 x i32], [2 x i32], [64 x i8], i64, i64, i8 }
%struct.bit_reader = type { i8, i32 }
%struct.multivolume = type { i32, ptr }
%struct.compressed_block_header = type { i8, i8 }

@.str = private unnamed_addr constant [25 x i8] c"Can't allocate rar5 data\00", align 1
@.str.1 = private unnamed_addr constant [34 x i8] c"Can't allocate rar5 filter buffer\00", align 1
@.str.2 = private unnamed_addr constant [5 x i8] c"rar5\00", align 1
@.str.3 = private unnamed_addr constant [33 x i8] c"archive_read_support_format_rar5\00", align 1

; Function Attrs: nounwind uwtable
define internal void @cdeque_clear(ptr noundef %0) #0 {
  %2 = alloca ptr, align 8
  store ptr %0, ptr %2, align 8, !tbaa !68
  %3 = load ptr, ptr %2, align 8, !tbaa !68
  %4 = getelementptr inbounds nuw %struct.cdeque, ptr %3, i32 0, i32 3
  store i16 0, ptr %4, align 2, !tbaa !72
  %5 = load ptr, ptr %2, align 8, !tbaa !68
  %6 = getelementptr inbounds nuw %struct.cdeque, ptr %5, i32 0, i32 0
  store i16 0, ptr %6, align 8, !tbaa !73
  %7 = load ptr, ptr %2, align 8, !tbaa !68
  %8 = getelementptr inbounds nuw %struct.cdeque, ptr %7, i32 0, i32 1
  store i16 0, ptr %8, align 2, !tbaa !74
  ret void
}

; Function Attrs: nounwind uwtable
define internal i32 @cdeque_init(ptr noundef %0, i32 noundef %1) #0 {
  %3 = alloca i32, align 4
  %4 = alloca ptr, align 8
  %5 = alloca i32, align 4
  store ptr %0, ptr %4, align 8, !tbaa !68
  store i32 %1, ptr %5, align 4, !tbaa !9
  %6 = load ptr, ptr %4, align 8, !tbaa !68
  %7 = icmp eq ptr %6, null
  br i1 %7, label %11, label %8

8:                                                ; preds = %2
  %9 = load i32, ptr %5, align 4, !tbaa !9
  %10 = icmp eq i32 %9, 0
  br i1 %10, label %11, label %12

11:                                               ; preds = %8, %2
  store i32 2, ptr %3, align 4
  br label %41

12:                                               ; preds = %8
  %13 = load i32, ptr %5, align 4, !tbaa !9
  %14 = sub nsw i32 %13, 1
  %15 = trunc i32 %14 to i16
  %16 = load ptr, ptr %4, align 8, !tbaa !68
  %17 = getelementptr inbounds nuw %struct.cdeque, ptr %16, i32 0, i32 2
  store i16 %15, ptr %17, align 4, !tbaa !70
  %18 = load ptr, ptr %4, align 8, !tbaa !68
  %19 = getelementptr inbounds nuw %struct.cdeque, ptr %18, i32 0, i32 4
  store ptr null, ptr %19, align 8, !tbaa !71
  %20 = load i32, ptr %5, align 4, !tbaa !9
  %21 = load ptr, ptr %4, align 8, !tbaa !68
  %22 = getelementptr inbounds nuw %struct.cdeque, ptr %21, i32 0, i32 2
  %23 = load i16, ptr %22, align 4, !tbaa !70
  %24 = zext i16 %23 to i32
  %25 = and i32 %20, %24
  %26 = icmp ne i32 %25, 0
  br i1 %26, label %27, label %28

27:                                               ; preds = %12
  store i32 2, ptr %3, align 4
  br label %41

28:                                               ; preds = %12
  %29 = load ptr, ptr %4, align 8, !tbaa !68
  call void @cdeque_clear(ptr noundef %29)
  %30 = load i32, ptr %5, align 4, !tbaa !9
  %31 = sext i32 %30 to i64
  %32 = mul i64 8, %31
  %33 = call noalias ptr @malloc(i64 noundef %32) #12
  %34 = load ptr, ptr %4, align 8, !tbaa !68
  %35 = getelementptr inbounds nuw %struct.cdeque, ptr %34, i32 0, i32 4
  store ptr %33, ptr %35, align 8, !tbaa !71
  %36 = load ptr, ptr %4, align 8, !tbaa !68
  %37 = getelementptr inbounds nuw %struct.cdeque, ptr %36, i32 0, i32 4
  %38 = load ptr, ptr %37, align 8, !tbaa !71
  %39 = icmp ne ptr %38, null
  %40 = select i1 %39, i32 0, i32 1
  store i32 %40, ptr %3, align 4
  br label %41

41:                                               ; preds = %28, %27, %11
  %42 = load i32, ptr %3, align 4
  ret i32 %42
}

; Function Attrs: nounwind uwtable
define internal i32 @rar5_init(ptr noundef %0) #0 {
  %2 = alloca i32, align 4
  %3 = alloca ptr, align 8
  store ptr %0, ptr %3, align 8, !tbaa !11
  %4 = load ptr, ptr %3, align 8, !tbaa !11
  call void @llvm.memset.p0.i64(ptr align 8 %4, i8 0, i64 21304, i1 false)
  %5 = load ptr, ptr %3, align 8, !tbaa !11
  %6 = getelementptr inbounds nuw %struct.rar5, ptr %5, i32 0, i32 8
  %7 = getelementptr inbounds nuw %struct.comp_state, ptr %6, i32 0, i32 20
  %8 = call i32 @cdeque_init(ptr noundef %7, i32 noundef 8192)
  %9 = icmp ne i32 0, %8
  br i1 %9, label %10, label %11

10:                                               ; preds = %1
  store i32 -30, ptr %2, align 4
  br label %14

11:                                               ; preds = %1
  %12 = load ptr, ptr %3, align 8, !tbaa !11
  %13 = getelementptr inbounds nuw %struct.rar5, ptr %12, i32 0, i32 13
  store i32 -1, ptr %13, align 4, !tbaa !17
  store i32 0, ptr %2, align 4
  br label %14

14:                                               ; preds = %11, %10
  %15 = load i32, ptr %2, align 4
  ret i32 %15
}

; Function Attrs: inlinehint nounwind uwtable
define internal i32 @get_archive_read(ptr noundef %0, ptr noundef %1) #2 {
  %3 = alloca i32, align 4
  %4 = alloca ptr, align 8
  %5 = alloca ptr, align 8
  %6 = alloca i32, align 4
  %7 = alloca i32, align 4
  store ptr %0, ptr %4, align 8, !tbaa !4
  store ptr %1, ptr %5, align 8, !tbaa !15
  %8 = load ptr, ptr %4, align 8, !tbaa !4
  %9 = load ptr, ptr %5, align 8, !tbaa !15
  store ptr %8, ptr %9, align 8, !tbaa !13
  br label %10

10:                                               ; preds = %2
  call void @llvm.lifetime.start.p0(i64 4, ptr %6) #11
  %11 = load ptr, ptr %4, align 8, !tbaa !4
  %12 = call i32 @__archive_check_magic(ptr noundef %11, i32 noundef 14594245, i32 noundef 1, ptr noundef @.str.3)
  store i32 %12, ptr %6, align 4, !tbaa !9
  %13 = load i32, ptr %6, align 4, !tbaa !9
  %14 = icmp eq i32 %13, -30
  br i1 %14, label %15, label %16

15:                                               ; preds = %10
  store i32 -30, ptr %3, align 4
  store i32 1, ptr %7, align 4
  br label %17

16:                                               ; preds = %10
  store i32 0, ptr %7, align 4
  br label %17

17:                                               ; preds = %16, %15
  call void @llvm.lifetime.end.p0(i64 4, ptr %6) #11
  %18 = load i32, ptr %7, align 4
  switch i32 %18, label %23 [
    i32 0, label %19
    i32 1, label %21
  ]

19:                                               ; preds = %17
  br label %20

20:                                               ; preds = %19
  store i32 0, ptr %3, align 4
  br label %21

21:                                               ; preds = %20, %17
  %22 = load i32, ptr %3, align 4
  ret i32 %22

23:                                               ; preds = %17
  unreachable
}

; Function Attrs: nounwind uwtable
define dso_local i32 @archive_read_support_format_rar5(ptr noundef %0) #0 {
  %2 = alloca i32, align 4
  %3 = alloca ptr, align 8
  %4 = alloca ptr, align 8
  %5 = alloca i32, align 4
  %6 = alloca ptr, align 8
  %7 = alloca i32, align 4
  store ptr %0, ptr %3, align 8, !tbaa !4
  call void @llvm.lifetime.start.p0(i64 8, ptr %4) #11
  call void @llvm.lifetime.start.p0(i64 4, ptr %5) #11
  call void @llvm.lifetime.start.p0(i64 8, ptr %6) #11
  %8 = load ptr, ptr %3, align 8, !tbaa !4
  %9 = call i32 @get_archive_read(ptr noundef %8, ptr noundef %4)
  store i32 %9, ptr %5, align 4, !tbaa !9
  %10 = icmp ne i32 0, %9
  br i1 %10, label %11, label %13

11:                                               ; preds = %1
  %12 = load i32, ptr %5, align 4, !tbaa !9
  store i32 %12, ptr %2, align 4
  store i32 1, ptr %7, align 4
  br label %39

13:                                               ; preds = %1
  %14 = call noalias ptr @malloc(i64 noundef 21304) #12
  store ptr %14, ptr %6, align 8, !tbaa !11
  %15 = load ptr, ptr %6, align 8, !tbaa !11
  %16 = icmp eq ptr %15, null
  br i1 %16, label %17, label %20

17:                                               ; preds = %13
  %18 = load ptr, ptr %4, align 8, !tbaa !13
  %19 = getelementptr inbounds nuw %struct.archive_read, ptr %18, i32 0, i32 0
  call void (ptr, i32, ptr, ...) @archive_set_error(ptr noundef %19, i32 noundef 12, ptr noundef @.str)
  store i32 -30, ptr %2, align 4
  store i32 1, ptr %7, align 4
  br label %39

20:                                               ; preds = %13
  %21 = load ptr, ptr %6, align 8, !tbaa !11
  %22 = call i32 @rar5_init(ptr noundef %21)
  %23 = icmp ne i32 0, %22
  br i1 %23, label %24, label %28

24:                                               ; preds = %20
  %25 = load ptr, ptr %4, align 8, !tbaa !13
  %26 = getelementptr inbounds nuw %struct.archive_read, ptr %25, i32 0, i32 0
  call void (ptr, i32, ptr, ...) @archive_set_error(ptr noundef %26, i32 noundef 12, ptr noundef @.str.1)
  %27 = load ptr, ptr %6, align 8, !tbaa !11
  call void @free(ptr noundef %27) #11
  store i32 -30, ptr %2, align 4
  store i32 1, ptr %7, align 4
  br label %39

28:                                               ; preds = %20
  %29 = load ptr, ptr %4, align 8, !tbaa !13
  %30 = load ptr, ptr %6, align 8, !tbaa !11
  %31 = call i32 @__archive_read_register_format(ptr noundef %29, ptr noundef %30, ptr noundef @.str.2, ptr noundef @rar5_bid, ptr noundef @rar5_options, ptr noundef @rar5_read_header, ptr noundef @rar5_read_data, ptr noundef @rar5_read_data_skip, ptr noundef @rar5_seek_data, ptr noundef @rar5_cleanup, ptr noundef @rar5_capabilities, ptr noundef @rar5_has_encrypted_entries)
  store i32 %31, ptr %5, align 4, !tbaa !9
  %32 = load i32, ptr %5, align 4, !tbaa !9
  %33 = icmp ne i32 %32, 0
  br i1 %33, label %34, label %37

34:                                               ; preds = %28
  %35 = load ptr, ptr %4, align 8, !tbaa !13
  %36 = call i32 @rar5_cleanup(ptr noundef %35)
  br label %37

37:                                               ; preds = %34, %28
  %38 = load i32, ptr %5, align 4, !tbaa !9
  store i32 %38, ptr %2, align 4
  store i32 1, ptr %7, align 4
  br label %39

39:                                               ; preds = %37, %24, %17, %11
  call void @llvm.lifetime.end.p0(i64 8, ptr %6) #11
  call void @llvm.lifetime.end.p0(i64 4, ptr %5) #11
  call void @llvm.lifetime.end.p0(i64 8, ptr %4) #11
  %40 = load i32, ptr %2, align 4
  ret i32 %40
}