; Function Attrs: nounwind uwtable
define dso_local i32 @archive_read_support_format_rar5(ptr noundef %0) local_unnamed_addr #0 {
  %2 = tail call i32 @__archive_check_magic(ptr noundef %0, i32 noundef 14594245, i32 noundef 1, ptr noundef nonnull @.str.3) #15
  %.not.i.not = icmp eq i32 %2, -30
  br i1 %.not.i.not, label %15, label %3

3:                                                ; preds = %1
  %calloc = tail call dereferenceable_or_null(21304) ptr @calloc(i64 1, i64 21304)
  %4 = icmp eq ptr %calloc, null
  br i1 %4, label %5, label %6

5:                                                ; preds = %3
  tail call void (ptr, i32, ptr, ...) @archive_set_error(ptr noundef %0, i32 noundef 12, ptr noundef nonnull @.str) #15
  br label %15

6:                                                ; preds = %3
  %7 = getelementptr inbounds nuw i8, ptr %calloc, i64 19260
  store i16 8191, ptr %7, align 4, !tbaa !4
  %8 = getelementptr inbounds nuw i8, ptr %calloc, i64 19264
  %9 = tail call noalias dereferenceable_or_null(65536) ptr @malloc(i64 noundef 65536) #16
  store ptr %9, ptr %8, align 8, !tbaa !11
  %.not.i.not.i = icmp eq ptr %9, null
  br i1 %.not.i.not.i, label %rar5_init.exit, label %10

rar5_init.exit:                                   ; preds = %6
  tail call void (ptr, i32, ptr, ...) @archive_set_error(ptr noundef %0, i32 noundef 12, ptr noundef nonnull @.str.1) #15
  tail call void @free(ptr noundef nonnull %calloc) #15
  br label %15

10:                                               ; preds = %6
  %11 = getelementptr inbounds nuw i8, ptr %calloc, i64 21292
  store i32 -1, ptr %11, align 4, !tbaa !12
  %12 = tail call i32 @__archive_read_register_format(ptr noundef %0, ptr noundef nonnull %calloc, ptr noundef nonnull @.str.2, ptr noundef nonnull @rar5_bid, ptr noundef nonnull @rar5_options, ptr noundef nonnull @rar5_read_header, ptr noundef nonnull @rar5_read_data, ptr noundef nonnull @rar5_read_data_skip, ptr noundef nonnull @rar5_seek_data, ptr noundef nonnull @rar5_cleanup, ptr noundef nonnull @rar5_capabilities, ptr noundef nonnull @rar5_has_encrypted_entries) #15
  %.not11 = icmp eq i32 %12, 0
  br i1 %.not11, label %15, label %13

13:                                               ; preds = %10
  %14 = tail call i32 @rar5_cleanup(ptr noundef %0)
  br label %15

15:                                               ; preds = %10, %13, %1, %rar5_init.exit, %5
  %.0 = phi i32 [ -30, %5 ], [ -30, %rar5_init.exit ], [ -30, %1 ], [ %12, %13 ], [ 0, %10 ]
  ret i32 %.0
}